; Function Attrs: mustprogress uwtable
define void @_ZNK10open_spiel6hearts11HeartsState12FormatPointsB5cxx11Ev(ptr dead_on_unwind noalias nonnull writable sret(%"class.std::__cxx11::basic_string") align 8 %0, ptr nocapture noundef nonnull readonly align 8 dereferenceable(1600) %1) local_unnamed_addr #4 align 2 personality ptr @__gxx_personality_v0 {
  %3 = alloca [1 x i8], align 1
  %4 = alloca %"class.std::allocator.0", align 1
  %5 = alloca %"class.absl::debian2::AlphaNum", align 8
  %6 = alloca %"class.absl::debian2::AlphaNum", align 8
  %7 = alloca %"class.absl::debian2::AlphaNum", align 8
  %8 = alloca %"class.std::__cxx11::basic_string", align 8
  %9 = alloca %"class.absl::debian2::AlphaNum", align 8
  %10 = alloca %"class.absl::debian2::AlphaNum", align 8
  tail call void @_ZNSt7__cxx1112basic_stringIcSt11char_traitsIcESaIcEEC1Ev(ptr noundef nonnull align 8 dereferenceable(32) %0) #25
  store ptr @.str.42, ptr %5, align 8
  %11 = getelementptr inbounds nuw i8, ptr %5, i64 8
  store i64 9, ptr %11, align 8
  invoke void @_ZN4absl7debian29StrAppendEPNSt7__cxx1112basic_stringIcSt11char_traitsIcESaIcEEERKNS0_8AlphaNumE(ptr noundef nonnull %0, ptr noundef nonnull align 8 dereferenceable(48) %5)
          to label %.preheader unwind label %36

.preheader:                                       ; preds = %2
  %12 = getelementptr inbounds nuw i8, ptr %6, i64 8
  %13 = getelementptr inbounds nuw i8, ptr %7, i64 8
  %14 = getelementptr inbounds nuw i8, ptr %9, i64 8
  %15 = getelementptr inbounds nuw i8, ptr %1, i64 1576
  %16 = getelementptr inbounds nuw i8, ptr %10, i64 16
  %17 = getelementptr inbounds nuw i8, ptr %10, i64 8
  br label %18

18:                                               ; preds = %.preheader, %35
  %indvars.iv = phi i64 [ 0, %.preheader ], [ %indvars.iv.next, %35 ]
  store ptr @.str.30, ptr %6, align 8
  store i64 1, ptr %12, align 8
  call void @llvm.lifetime.start.p0(i64 1, ptr nonnull %3)
  call void @llvm.lifetime.start.p0(i64 1, ptr nonnull %4)
  %19 = getelementptr inbounds [5 x i8], ptr @_ZN10open_spiel6heartsL8kDirCharE, i64 0, i64 %indvars.iv
  %20 = load i8, ptr %19, align 1, !noalias !50
  store i8 %20, ptr %3, align 1, !noalias !50
  call void @_ZNSaIcEC1Ev(ptr noundef nonnull align 1 dereferenceable(1) %4) #25, !noalias !50
  invoke void @_ZNSt7__cxx1112basic_stringIcSt11char_traitsIcESaIcEEC1ESt16initializer_listIcERKS3_(ptr noundef nonnull align 8 dereferenceable(32) %8, ptr nonnull %3, i64 1, ptr noundef nonnull align 1 dereferenceable(1) %4)
          to label %23 unwind label %21

21:                                               ; preds = %18
  %22 = landingpad { ptr, i32 }
          cleanup
  call void @_ZNSaIcED1Ev(ptr noundef nonnull align 1 dereferenceable(1) %4) #25
  br label %.body

23:                                               ; preds = %18
  call void @_ZNSaIcED1Ev(ptr noundef nonnull align 1 dereferenceable(1) %4) #25
  call void @llvm.lifetime.end.p0(i64 1, ptr nonnull %3)
  call void @llvm.lifetime.end.p0(i64 1, ptr nonnull %4)
  %24 = call noundef ptr @_ZNKSt7__cxx1112basic_stringIcSt11char_traitsIcESaIcEE4dataEv(ptr noundef nonnull align 8 dereferenceable(32) %8) #25
  %25 = call noundef i64 @_ZNKSt7__cxx1112basic_stringIcSt11char_traitsIcESaIcEE4sizeEv(ptr noundef nonnull align 8 dereferenceable(32) %8) #25
  store ptr %24, ptr %7, align 8
  %26 = icmp sgt i64 %25, -1
  br i1 %26, label %_ZN4absl7debian28AlphaNumC2ISaIcEEERKNSt7__cxx1112basic_stringIcSt11char_traitsIcET_EE.exit, label %27

27:                                               ; preds = %23
  call void @llvm.trap()
  unreachable

_ZN4absl7debian28AlphaNumC2ISaIcEEERKNSt7__cxx1112basic_stringIcSt11char_traitsIcET_EE.exit: ; preds = %23
  store i64 %25, ptr %13, align 8
  store ptr @.str.34, ptr %9, align 8
  store i64 2, ptr %14, align 8
  %28 = load ptr, ptr %15, align 8
  %29 = getelementptr inbounds double, ptr %28, i64 %indvars.iv
  %30 = load double, ptr %29, align 8
  %31 = invoke noundef i64 @_ZN4absl7debian216numbers_internal17SixDigitsToBufferEdPc(double noundef %30, ptr noundef nonnull %16)
          to label %.noexc unwind label %38

.noexc:                                           ; preds = %_ZN4absl7debian28AlphaNumC2ISaIcEEERKNSt7__cxx1112basic_stringIcSt11char_traitsIcET_EE.exit
  store ptr %16, ptr %10, align 8
  %32 = icmp sgt i64 %31, -1
  br i1 %32, label %34, label %33

33:                                               ; preds = %.noexc
  call void @llvm.trap()
  unreachable

34:                                               ; preds = %.noexc
  store i64 %31, ptr %17, align 8
  invoke void @_ZN4absl7debian29StrAppendEPNSt7__cxx1112basic_stringIcSt11char_traitsIcESaIcEEERKNS0_8AlphaNumESA_SA_SA_(ptr noundef nonnull %0, ptr noundef nonnull align 8 dereferenceable(48) %6, ptr noundef nonnull align 8 dereferenceable(48) %7, ptr noundef nonnull align 8 dereferenceable(48) %9, ptr noundef nonnull align 8 dereferenceable(48) %10)
          to label %35 unwind label %38

35:                                               ; preds = %34
  call void @_ZNSt7__cxx1112basic_stringIcSt11char_traitsIcESaIcEED1Ev(ptr noundef nonnull align 8 dereferenceable(32) %8) #25
  %indvars.iv.next = add nuw nsw i64 %indvars.iv, 1
  %exitcond.not = icmp eq i64 %indvars.iv.next, 4
  br i1 %exitcond.not, label %40, label %18, !llvm.loop !53

36:                                               ; preds = %2
  %37 = landingpad { ptr, i32 }
          cleanup
  br label %.body

38:                                               ; preds = %_ZN4absl7debian28AlphaNumC2ISaIcEEERKNSt7__cxx1112basic_stringIcSt11char_traitsIcET_EE.exit, %34
  %39 = landingpad { ptr, i32 }
          cleanup
  call void @_ZNSt7__cxx1112basic_stringIcSt11char_traitsIcESaIcEED1Ev(ptr noundef nonnull align 8 dereferenceable(32) %8) #25
  br label %.body

40:                                               ; preds = %35
  ret void

.body:                                            ; preds = %36, %21, %38
  %.pn = phi { ptr, i32 } [ %39, %38 ], [ %37, %36 ], [ %22, %21 ]
  call void @_ZNSt7__cxx1112basic_stringIcSt11char_traitsIcESaIcEED1Ev(ptr noundef nonnull align 8 dereferenceable(32) %0) #25
  resume { ptr, i32 } %.pn
}